(dp0
Vengine
p1
S'pdflatex'
p2
sVpackages
p3
c__builtin__
set
p4
((lp5
Vamsmath
p6
aVfullpage
p7
aVamssymb
p8
atp9
Rp10
sVfiles_with_guttermarks
p11
g4
((lp12
S'Problem_Set_1.tex'
p13
atp14
Rp15
sVsynctex
p16
I01
s.