(dp0
Vengine
p1
S'pdflatex'
p2
sVpackages
p3
c__builtin__
set
p4
((lp5
Vamsmath
p6
aVfullpage
p7
aVamssymb
p8
aVenumerate
p9
atp10
Rp11
sVfiles_with_guttermarks
p12
g4
((lp13
V/Users/sivaambi/GitHub/2019_PSS/Problem_Sets/2/./Problems.tex
p14
aV/Users/sivaambi/GitHub/2019_PSS/Problem_Sets/2/Problems.tex
p15
aS'Problems.tex'
p16
atp17
Rp18
sVsynctex
p19
I01
s.