(dp0
Vengine
p1
S'pdflatex'
p2
sVpackages
p3
c__builtin__
set
p4
((lp5
Vamsmath
p6
aVfullpage
p7
aVamssymb
p8
atp9
Rp10
sVfiles_with_guttermarks
p11
g4
((lp12
S'Problems.tex'
p13
aV/Users/sivaramambikasaran/Google_Drive_Stanford/IITM/Teaching/2019_Jan_Apr/MA2040_Probability_Stochastic_Process_and_Statistics/Problemsets/1/./Problems.tex
p14
atp15
Rp16
sVsynctex
p17
I01
s.