(dp0
Vengine
p1
Vpdflatex
p2
sVpackages
p3
c__builtin__
set
p4
((lp5
Vamsmath
p6
aVsetspace
p7
aVgeometry
p8
aVmultirow
p9
aVarray
p10
aVgraphicx
p11
aVamssymb
p12
atp13
Rp14
sVfiles_with_guttermarks
p15
g4
((lp16
S'quiz_1soln.tex'
p17
atp18
Rp19
sVsynctex
p20
I01
s.