(dp0
Vengine
p1
Vpdflatex
p2
sVpackages
p3
c__builtin__
set
p4
((lp5
Vamsmath
p6
aVfullpage
p7
aVamssymb
p8
aVtikz
p9
aVenumerate
p10
atp11
Rp12
sVfiles_with_guttermarks
p13
g4
((lp14
S'Problem_Set_4soln.tex'
p15
aV/Users/sivaambi/GitHub/2019_PSS/Problem_Sets/4/./Problem_Set_4soln.tex
p16
atp17
Rp18
sVsynctex
p19
I01
s.